target datalayout = "e-m:e-p270:32:32-p271:32:32-p272:64:64-i64:64-i128:128-f80:128-n8:16:32:64-S128"
target triple = "x86_64-pc-linux-gnu"

%struct._cmstransform_struct = type { i32, i32, ptr, ptr, ptr, ptr, ptr, %struct._cmsCACHE, ptr, ptr, ptr, ptr, i32, i32, %struct.cmsCIEXYZ, %struct.cmsCIEXYZ, ptr, i32, double, i32, ptr, ptr, ptr, ptr, ptr, i32, i32 }
%struct._cmsCACHE = type { [16 x i16], [16 x i16] }
%struct.cmsCIEXYZ = type { double, double, double }

; Function Attrs: nounwind uwtable
define internal i32 @PixelSize(i32 noundef %0) #0 {
  %2 = alloca i32, align 4
  %3 = alloca i32, align 4
  %4 = alloca i32, align 4
  store i32 %0, ptr %3, align 4
  %5 = load i32, ptr %3, align 4
  %6 = and i32 %5, 7
  store i32 %6, ptr %4, align 4
  %7 = load i32, ptr %4, align 4
  %8 = icmp eq i32 %7, 0
  br i1 %8, label %9, label %10

9:                                                ; preds = %1
  store i32 8, ptr %2, align 4
  br label %12

10:                                               ; preds = %1
  %11 = load i32, ptr %4, align 4
  store i32 %11, ptr %2, align 4
  br label %12

12:                                               ; preds = %10, %9
  %13 = load i32, ptr %2, align 4
  ret i32 %13
}

; Function Attrs: nounwind uwtable
define internal ptr @UnrollLabDoubleToFloat(ptr noundef %0, ptr noundef %1, ptr noundef %2, i32 noundef %3) #0 {
  %5 = alloca ptr, align 8
  %6 = alloca ptr, align 8
  %7 = alloca ptr, align 8
  %8 = alloca ptr, align 8
  %9 = alloca i32, align 4
  %10 = alloca ptr, align 8
  store ptr %0, ptr %6, align 8
  store ptr %1, ptr %7, align 8
  store ptr %2, ptr %8, align 8
  store i32 %3, ptr %9, align 4
  %11 = load ptr, ptr %8, align 8
  store ptr %11, ptr %10, align 8
  %12 = load ptr, ptr %6, align 8
  %13 = getelementptr inbounds %struct._cmstransform_struct, ptr %12, i32 0, i32 0
  %14 = load i32, ptr %13, align 8
  %15 = lshr i32 %14, 12
  %16 = and i32 %15, 1
  %17 = icmp ne i32 %16, 0
  br i1 %17, label %18, label %55

18:                                               ; preds = %4
  %19 = load ptr, ptr %6, align 8
  %20 = getelementptr inbounds %struct._cmstransform_struct, ptr %19, i32 0, i32 0
  %21 = load i32, ptr %20, align 8
  %22 = call i32 @PixelSize(i32 noundef %21)
  %23 = load i32, ptr %9, align 4
  %24 = udiv i32 %23, %22
  store i32 %24, ptr %9, align 4
  %25 = load ptr, ptr %10, align 8
  %26 = getelementptr inbounds double, ptr %25, i64 0
  %27 = load double, ptr %26, align 8
  %28 = fdiv double %27, 1.000000e+02
  %29 = fptrunc double %28 to float
  %30 = load ptr, ptr %7, align 8
  %31 = getelementptr inbounds float, ptr %30, i64 0
  store float %29, ptr %31, align 4
  %32 = load ptr, ptr %10, align 8
  %33 = load i32, ptr %9, align 4
  %34 = zext i32 %33 to i64
  %35 = getelementptr inbounds double, ptr %32, i64 %34
  %36 = load double, ptr %35, align 8
  %37 = fadd double %36, 1.280000e+02
  %38 = fdiv double %37, 2.550000e+02
  %39 = fptrunc double %38 to float
  %40 = load ptr, ptr %7, align 8
  %41 = getelementptr inbounds float, ptr %40, i64 1
  store float %39, ptr %41, align 4
  %42 = load ptr, ptr %10, align 8
  %43 = load i32, ptr %9, align 4
  %44 = mul i32 %43, 2
  %45 = zext i32 %44 to i64
  %46 = getelementptr inbounds double, ptr %42, i64 %45
  %47 = load double, ptr %46, align 8
  %48 = fadd double %47, 1.280000e+02
  %49 = fdiv double %48, 2.550000e+02
  %50 = fptrunc double %49 to float
  %51 = load ptr, ptr %7, align 8
  %52 = getelementptr inbounds float, ptr %51, i64 2
  store float %50, ptr %52, align 4
  %53 = load ptr, ptr %8, align 8
  %54 = getelementptr inbounds i8, ptr %53, i64 8
  store ptr %54, ptr %5, align 8
  br label %90

55:                                               ; preds = %4
  %56 = load ptr, ptr %10, align 8
  %57 = getelementptr inbounds double, ptr %56, i64 0
  %58 = load double, ptr %57, align 8
  %59 = fdiv double %58, 1.000000e+02
  %60 = fptrunc double %59 to float
  %61 = load ptr, ptr %7, align 8
  %62 = getelementptr inbounds float, ptr %61, i64 0
  store float %60, ptr %62, align 4
  %63 = load ptr, ptr %10, align 8
  %64 = getelementptr inbounds double, ptr %63, i64 1
  %65 = load double, ptr %64, align 8
  %66 = fadd double %65, 1.280000e+02
  %67 = fdiv double %66, 2.550000e+02
  %68 = fptrunc double %67 to float
  %69 = load ptr, ptr %7, align 8
  %70 = getelementptr inbounds float, ptr %69, i64 1
  store float %68, ptr %70, align 4
  %71 = load ptr, ptr %10, align 8
  %72 = getelementptr inbounds double, ptr %71, i64 2
  %73 = load double, ptr %72, align 8
  %74 = fadd double %73, 1.280000e+02
  %75 = fdiv double %74, 2.550000e+02
  %76 = fptrunc double %75 to float
  %77 = load ptr, ptr %7, align 8
  %78 = getelementptr inbounds float, ptr %77, i64 2
  store float %76, ptr %78, align 4
  %79 = load ptr, ptr %6, align 8
  %80 = getelementptr inbounds %struct._cmstransform_struct, ptr %79, i32 0, i32 0
  %81 = load i32, ptr %80, align 8
  %82 = lshr i32 %81, 7
  %83 = and i32 %82, 7
  %84 = add i32 3, %83
  %85 = zext i32 %84 to i64
  %86 = mul i64 8, %85
  %87 = load ptr, ptr %8, align 8
  %88 = getelementptr inbounds i8, ptr %87, i64 %86
  store ptr %88, ptr %8, align 8
  %89 = load ptr, ptr %8, align 8
  store ptr %89, ptr %5, align 8
  br label %90

90:                                               ; preds = %55, %18
  %91 = load ptr, ptr %5, align 8
  ret ptr %91
}