; Function Attrs: mustprogress nofree norecurse nosync nounwind willreturn memory(argmem: readwrite) uwtable
define internal nonnull ptr @UnrollLabDoubleToFloat(ptr nocapture noundef readonly %0, ptr nocapture noundef writeonly %1, ptr noundef readonly %2, i32 noundef %3) #3 {
  %5 = load i32, ptr %0, align 8
  %6 = and i32 %5, 4096
  %.not = icmp eq i32 %6, 0
  br i1 %.not, label %30, label %7

7:                                                ; preds = %4
  %8 = and i32 %5, 7
  %9 = icmp eq i32 %8, 0
  %..i = select i1 %9, i32 8, i32 %8
  %10 = udiv i32 %3, %..i
  %11 = load double, ptr %2, align 8
  %12 = fdiv double %11, 1.000000e+02
  %13 = fptrunc double %12 to float
  store float %13, ptr %1, align 4
  %14 = zext i32 %10 to i64
  %15 = getelementptr inbounds double, ptr %2, i64 %14
  %16 = load double, ptr %15, align 8
  %17 = fadd double %16, 1.280000e+02
  %18 = fdiv double %17, 2.550000e+02
  %19 = fptrunc double %18 to float
  %20 = getelementptr inbounds i8, ptr %1, i64 4
  store float %19, ptr %20, align 4
  %21 = shl i32 %10, 1
  %22 = zext i32 %21 to i64
  %23 = getelementptr inbounds double, ptr %2, i64 %22
  %24 = load double, ptr %23, align 8
  %25 = fadd double %24, 1.280000e+02
  %26 = fdiv double %25, 2.550000e+02
  %27 = fptrunc double %26 to float
  %28 = getelementptr inbounds i8, ptr %1, i64 8
  store float %27, ptr %28, align 4
  %29 = getelementptr inbounds i8, ptr %2, i64 8
  br label %52

30:                                               ; preds = %4
  %31 = load double, ptr %2, align 8
  %32 = fdiv double %31, 1.000000e+02
  %33 = fptrunc double %32 to float
  store float %33, ptr %1, align 4
  %34 = getelementptr inbounds i8, ptr %2, i64 8
  %35 = load double, ptr %34, align 8
  %36 = fadd double %35, 1.280000e+02
  %37 = fdiv double %36, 2.550000e+02
  %38 = fptrunc double %37 to float
  %39 = getelementptr inbounds i8, ptr %1, i64 4
  store float %38, ptr %39, align 4
  %40 = getelementptr inbounds i8, ptr %2, i64 16
  %41 = load double, ptr %40, align 8
  %42 = fadd double %41, 1.280000e+02
  %43 = fdiv double %42, 2.550000e+02
  %44 = fptrunc double %43 to float
  %45 = getelementptr inbounds i8, ptr %1, i64 8
  store float %44, ptr %45, align 4
  %46 = load i32, ptr %0, align 8
  %47 = lshr i32 %46, 4
  %48 = and i32 %47, 56
  %49 = zext nneg i32 %48 to i64
  %50 = getelementptr inbounds i8, ptr %2, i64 %49
  %51 = getelementptr inbounds i8, ptr %50, i64 24
  br label %52

52:                                               ; preds = %30, %7
  %.0 = phi ptr [ %29, %7 ], [ %51, %30 ]
  ret ptr %.0
}